(lp0
(S'cppflags'
p1
ccopy_reg
_reconstructor
p2
(cino.utils
SpaceList
p3
c__builtin__
list
p4
(lp5
S'-mmcu=atmega328p'
p6
aS'-DF_CPU=16000000L'
p7
aS'-DARDUINO=106'
p8
aS'-I/cygdrive/c/Dropbox/Arduino/arduino-1.0.6/hardware/arduino/cores/arduino'
p9
aS'-ffunction-sections'
p10
aS'-fdata-sections'
p11
aS'-g'
p12
aS'-Os'
p13
aS'-w'
p14
aS'-I/cygdrive/c/Dropbox/Arduino/arduino-1.0.6/hardware/arduino/variants/standard'
p15
atp16
Rp17
tp18
a(S'arduino_variants_dir'
p19
S'/cygdrive/c/Dropbox/Arduino/arduino-1.0.6/hardware/arduino/variants'
p20
tp21
a(S'version.txt'
p22
S'/cygdrive/c/Dropbox/Arduino/arduino-1.0.6/lib/version.txt'
p23
tp24
a(S'used_libs'
p25
(lp26
tp27
a(S'cxx'
p28
S'/cygdrive/c/Dropbox/Arduino/arduino-1.0.6/hardware/tools/avr/bin/avr-g++'
p29
tp30
a(S'make'
p31
S'/usr/bin/make'
p32
tp33
a(S'build_dir'
p34
S'.build/pro5v328'
p35
tp36
a(S'arduino_core_dir'
p37
S'/cygdrive/c/Dropbox/Arduino/arduino-1.0.6/hardware/arduino/cores/arduino'
p38
tp39
a(S'boards.txt'
p40
S'/cygdrive/c/Dropbox/Arduino/arduino-1.0.6/hardware/arduino/boards.txt'
p41
tp42
a(S'cxxflags'
p43
g2
(g3
g4
(lp44
S'-fno-exceptions'
p45
atp46
Rp47
tp48
a(S'cc'
p49
S'/cygdrive/c/Dropbox/Arduino/arduino-1.0.6/hardware/tools/avr/bin/avr-gcc'
p50
tp51
a(S'deps'
p52
g2
(g3
g4
(lp53
S'.build/pro5v328/dependencies.d'
p54
atp55
Rp56
tp57
a(S'ar'
p58
S'/cygdrive/c/Dropbox/Arduino/arduino-1.0.6/hardware/tools/avr/bin/avr-ar'
p59
tp60
a(S'names'
p61
(dp62
S'cpp'
p63
S'%s.cpp'
p64
sS'obj'
p65
S'%s.o'
p66
sS'deps'
p67
S'%s.d'
p68
sS'lib'
p69
S'lib%s.a'
p70
stp71
a(S'cflags'
p72
g2
(g3
g4
(lp73
tp74
Rp75
tp76
a(S'arduino_libraries_dir'
p77
S'/cygdrive/c/Dropbox/Arduino/arduino-1.0.6/libraries'
p78
tp79
a(S'arduino_lib_version'
p80
g2
(cino.environment
Version
p81
c__builtin__
tuple
p82
(I1
I0
I6
tp83
tp84
Rp85
tp86
a(S'objcopy'
p87
S'/cygdrive/c/Dropbox/Arduino/arduino-1.0.6/hardware/tools/avr/bin/avr-objcopy'
p88
tp89
a(S'board_models'
p90
cino.environment
BoardModels
p91
((lp92
(lp93
S'uno'
p94
a(dp95
S'bootloader'
p96
(dp97
S'extended_fuses'
p98
S'0x05'
p99
sS'high_fuses'
p100
S'0xde'
p101
sS'low_fuses'
p102
S'0xff'
p103
sS'lock_bits'
p104
S'0x0F'
p105
sS'file'
p106
S'optiboot_atmega328.hex'
p107
sS'path'
p108
S'optiboot'
p109
sS'unlock_bits'
p110
S'0x3F'
p111
ssS'upload'
p112
(dp113
S'speed'
p114
S'115200'
p115
sS'maximum_size'
p116
S'32256'
p117
sS'protocol'
p118
S'arduino'
p119
ssS'name'
p120
S'Arduino Uno'
p121
sS'build'
p122
(dp123
S'core'
p124
S'arduino'
p125
sS'mcu'
p126
S'atmega328p'
p127
sS'f_cpu'
p128
S'16000000L'
p129
sS'variant'
p130
S'standard'
p131
ssaa(lp132
S'atmega328'
p133
a(dp134
S'bootloader'
p135
(dp136
S'extended_fuses'
p137
S'0x05'
p138
sS'high_fuses'
p139
S'0xDA'
p140
sS'low_fuses'
p141
S'0xFF'
p142
sS'lock_bits'
p143
S'0x0F'
p144
sS'file'
p145
S'ATmegaBOOT_168_atmega328.hex'
p146
sS'path'
p147
S'atmega'
p148
sS'unlock_bits'
p149
S'0x3F'
p150
ssS'upload'
p151
(dp152
S'speed'
p153
S'57600'
p154
sS'maximum_size'
p155
S'30720'
p156
sS'protocol'
p157
S'arduino'
p158
ssS'name'
p159
S'Arduino Duemilanove w/ ATmega328'
p160
sS'build'
p161
(dp162
S'core'
p163
S'arduino'
p164
sS'mcu'
p165
S'atmega328p'
p166
sS'f_cpu'
p167
S'16000000L'
p168
sS'variant'
p169
S'standard'
p170
ssaa(lp171
S'diecimila'
p172
a(dp173
S'bootloader'
p174
(dp175
S'extended_fuses'
p176
S'0x00'
p177
sS'high_fuses'
p178
S'0xdd'
p179
sS'low_fuses'
p180
S'0xff'
p181
sS'lock_bits'
p182
S'0x0F'
p183
sS'file'
p184
S'ATmegaBOOT_168_diecimila.hex'
p185
sS'path'
p186
S'atmega'
p187
sS'unlock_bits'
p188
S'0x3F'
p189
ssS'upload'
p190
(dp191
S'speed'
p192
S'19200'
p193
sS'maximum_size'
p194
S'14336'
p195
sS'protocol'
p196
S'arduino'
p197
ssS'name'
p198
S'Arduino Diecimila or Duemilanove w/ ATmega168'
p199
sS'build'
p200
(dp201
S'core'
p202
S'arduino'
p203
sS'mcu'
p204
S'atmega168'
p205
sS'f_cpu'
p206
S'16000000L'
p207
sS'variant'
p208
S'standard'
p209
ssaa(lp210
S'nano328'
p211
a(dp212
S'bootloader'
p213
(dp214
S'extended_fuses'
p215
S'0x05'
p216
sS'high_fuses'
p217
S'0xDA'
p218
sS'low_fuses'
p219
S'0xFF'
p220
sS'lock_bits'
p221
S'0x0F'
p222
sS'file'
p223
S'ATmegaBOOT_168_atmega328.hex'
p224
sS'path'
p225
S'atmega'
p226
sS'unlock_bits'
p227
S'0x3F'
p228
ssS'upload'
p229
(dp230
S'speed'
p231
S'57600'
p232
sS'maximum_size'
p233
S'30720'
p234
sS'protocol'
p235
S'arduino'
p236
ssS'name'
p237
S'Arduino Nano w/ ATmega328'
p238
sS'build'
p239
(dp240
S'core'
p241
S'arduino'
p242
sS'mcu'
p243
S'atmega328p'
p244
sS'f_cpu'
p245
S'16000000L'
p246
sS'variant'
p247
S'eightanaloginputs'
p248
ssaa(lp249
S'nano'
p250
a(dp251
S'bootloader'
p252
(dp253
S'extended_fuses'
p254
S'0x00'
p255
sS'high_fuses'
p256
S'0xdd'
p257
sS'low_fuses'
p258
S'0xff'
p259
sS'lock_bits'
p260
S'0x0F'
p261
sS'file'
p262
S'ATmegaBOOT_168_diecimila.hex'
p263
sS'path'
p264
S'atmega'
p265
sS'unlock_bits'
p266
S'0x3F'
p267
ssS'upload'
p268
(dp269
S'speed'
p270
S'19200'
p271
sS'maximum_size'
p272
S'14336'
p273
sS'protocol'
p274
S'arduino'
p275
ssS'name'
p276
S'Arduino Nano w/ ATmega168'
p277
sS'build'
p278
(dp279
S'core'
p280
S'arduino'
p281
sS'mcu'
p282
S'atmega168'
p283
sS'f_cpu'
p284
S'16000000L'
p285
sS'variant'
p286
S'eightanaloginputs'
p287
ssaa(lp288
S'mega2560'
p289
a(dp290
S'bootloader'
p291
(dp292
S'extended_fuses'
p293
S'0xFD'
p294
sS'high_fuses'
p295
S'0xD8'
p296
sS'low_fuses'
p297
S'0xFF'
p298
sS'lock_bits'
p299
S'0x0F'
p300
sS'file'
p301
S'stk500boot_v2_mega2560.hex'
p302
sS'path'
p303
S'stk500v2'
p304
sS'unlock_bits'
p305
S'0x3F'
p306
ssS'upload'
p307
(dp308
S'speed'
p309
S'115200'
p310
sS'maximum_size'
p311
S'258048'
p312
sS'protocol'
p313
S'wiring'
p314
ssS'name'
p315
S'Arduino Mega 2560 or Mega ADK'
p316
sS'build'
p317
(dp318
S'core'
p319
S'arduino'
p320
sS'mcu'
p321
S'atmega2560'
p322
sS'f_cpu'
p323
S'16000000L'
p324
sS'variant'
p325
S'mega'
p326
ssaa(lp327
S'mega'
p328
a(dp329
S'bootloader'
p330
(dp331
S'extended_fuses'
p332
S'0xF5'
p333
sS'high_fuses'
p334
S'0xDA'
p335
sS'low_fuses'
p336
S'0xFF'
p337
sS'lock_bits'
p338
S'0x0F'
p339
sS'file'
p340
S'ATmegaBOOT_168_atmega1280.hex'
p341
sS'path'
p342
S'atmega'
p343
sS'unlock_bits'
p344
S'0x3F'
p345
ssS'upload'
p346
(dp347
S'speed'
p348
S'57600'
p349
sS'maximum_size'
p350
S'126976'
p351
sS'protocol'
p352
S'arduino'
p353
ssS'name'
p354
S'Arduino Mega (ATmega1280)'
p355
sS'build'
p356
(dp357
S'core'
p358
S'arduino'
p359
sS'mcu'
p360
S'atmega1280'
p361
sS'f_cpu'
p362
S'16000000L'
p363
sS'variant'
p364
S'mega'
p365
ssaa(lp366
S'leonardo'
p367
a(dp368
S'bootloader'
p369
(dp370
S'extended_fuses'
p371
S'0xcb'
p372
sS'high_fuses'
p373
S'0xd8'
p374
sS'low_fuses'
p375
S'0xff'
p376
sS'lock_bits'
p377
S'0x2F'
p378
sS'file'
p379
S'Caterina-Leonardo.hex'
p380
sS'path'
p381
S'caterina'
p382
sS'unlock_bits'
p383
S'0x3F'
p384
ssS'upload'
p385
(dp386
S'speed'
p387
S'57600'
p388
sS'maximum_size'
p389
S'28672'
p390
sS'protocol'
p391
S'avr109'
p392
sS'disable_flushing'
p393
S'true'
p394
ssS'name'
p395
S'Arduino Leonardo'
p396
sS'build'
p397
(dp398
S'core'
p399
S'arduino'
p400
sS'f_cpu'
p401
S'16000000L'
p402
sS'vid'
p403
S'0x2341'
p404
sS'pid'
p405
S'0x8036'
p406
sS'variant'
p407
S'leonardo'
p408
sS'mcu'
p409
S'atmega32u4'
p410
ssaa(lp411
S'esplora'
p412
a(dp413
S'bootloader'
p414
(dp415
S'extended_fuses'
p416
S'0xcb'
p417
sS'high_fuses'
p418
S'0xd8'
p419
sS'low_fuses'
p420
S'0xff'
p421
sS'lock_bits'
p422
S'0x2F'
p423
sS'file'
p424
S'Caterina-Esplora.hex'
p425
sS'path'
p426
S'caterina'
p427
sS'unlock_bits'
p428
S'0x3F'
p429
ssS'upload'
p430
(dp431
S'speed'
p432
S'57600'
p433
sS'maximum_size'
p434
S'28672'
p435
sS'protocol'
p436
S'avr109'
p437
sS'disable_flushing'
p438
S'true'
p439
ssS'name'
p440
S'Arduino Esplora'
p441
sS'build'
p442
(dp443
S'core'
p444
S'arduino'
p445
sS'f_cpu'
p446
S'16000000L'
p447
sS'vid'
p448
S'0x2341'
p449
sS'pid'
p450
S'0x803C'
p451
sS'variant'
p452
S'leonardo'
p453
sS'mcu'
p454
S'atmega32u4'
p455
ssaa(lp456
S'micro'
p457
a(dp458
S'bootloader'
p459
(dp460
S'extended_fuses'
p461
S'0xcb'
p462
sS'high_fuses'
p463
S'0xd8'
p464
sS'low_fuses'
p465
S'0xff'
p466
sS'lock_bits'
p467
S'0x2F'
p468
sS'file'
p469
S'Caterina-Micro.hex'
p470
sS'path'
p471
S'caterina'
p472
sS'unlock_bits'
p473
S'0x3F'
p474
ssS'upload'
p475
(dp476
S'speed'
p477
S'57600'
p478
sS'maximum_size'
p479
S'28672'
p480
sS'protocol'
p481
S'avr109'
p482
sS'disable_flushing'
p483
S'true'
p484
ssS'name'
p485
S'Arduino Micro'
p486
sS'build'
p487
(dp488
S'core'
p489
S'arduino'
p490
sS'f_cpu'
p491
S'16000000L'
p492
sS'vid'
p493
S'0x2341'
p494
sS'pid'
p495
S'0x8037'
p496
sS'variant'
p497
S'micro'
p498
sS'mcu'
p499
S'atmega32u4'
p500
ssaa(lp501
S'mini328'
p502
a(dp503
S'bootloader'
p504
(dp505
S'extended_fuses'
p506
S'0x05'
p507
sS'high_fuses'
p508
S'0xd8'
p509
sS'low_fuses'
p510
S'0xff'
p511
sS'lock_bits'
p512
S'0x0F'
p513
sS'file'
p514
S'optiboot_atmega328-Mini.hex'
p515
sS'path'
p516
S'optiboot'
p517
sS'unlock_bits'
p518
S'0x3F'
p519
ssS'upload'
p520
(dp521
S'speed'
p522
S'115200'
p523
sS'maximum_size'
p524
S'28672'
p525
sS'protocol'
p526
S'arduino'
p527
ssS'name'
p528
S'Arduino Mini w/ ATmega328'
p529
sS'build'
p530
(dp531
S'core'
p532
S'arduino'
p533
sS'mcu'
p534
S'atmega328p'
p535
sS'f_cpu'
p536
S'16000000L'
p537
sS'variant'
p538
S'eightanaloginputs'
p539
ssaa(lp540
S'mini'
p541
a(dp542
S'bootloader'
p543
(dp544
S'extended_fuses'
p545
S'0x00'
p546
sS'high_fuses'
p547
S'0xdd'
p548
sS'low_fuses'
p549
S'0xff'
p550
sS'lock_bits'
p551
S'0x0F'
p552
sS'file'
p553
S'ATmegaBOOT_168_ng.hex'
p554
sS'path'
p555
S'atmega'
p556
sS'unlock_bits'
p557
S'0x3F'
p558
ssS'upload'
p559
(dp560
S'speed'
p561
S'19200'
p562
sS'maximum_size'
p563
S'14336'
p564
sS'protocol'
p565
S'arduino'
p566
ssS'name'
p567
S'Arduino Mini w/ ATmega168'
p568
sS'build'
p569
(dp570
S'core'
p571
S'arduino'
p572
sS'mcu'
p573
S'atmega168'
p574
sS'f_cpu'
p575
S'16000000L'
p576
sS'variant'
p577
S'eightanaloginputs'
p578
ssaa(lp579
S'ethernet'
p580
a(dp581
S'bootloader'
p582
(dp583
S'extended_fuses'
p584
S'0x05'
p585
sS'high_fuses'
p586
S'0xde'
p587
sS'low_fuses'
p588
S'0xff'
p589
sS'lock_bits'
p590
S'0x0F'
p591
sS'file'
p592
S'optiboot_atmega328.hex'
p593
sS'path'
p594
S'optiboot'
p595
sS'unlock_bits'
p596
S'0x3F'
p597
ssS'upload'
p598
(dp599
S'speed'
p600
S'115200'
p601
sS'maximum_size'
p602
S'32256'
p603
sS'protocol'
p604
S'arduino'
p605
ssS'name'
p606
S'Arduino Ethernet'
p607
sS'build'
p608
(dp609
S'f_cpu'
p610
S'16000000L'
p611
sS'mcu'
p612
S'atmega328p'
p613
sS'variant'
p614
S'ethernet'
p615
sS'core'
p616
S'arduino'
p617
ssaa(lp618
S'fio'
p619
a(dp620
S'bootloader'
p621
(dp622
S'extended_fuses'
p623
S'0x05'
p624
sS'high_fuses'
p625
S'0xDA'
p626
sS'low_fuses'
p627
S'0xFF'
p628
sS'lock_bits'
p629
S'0x0F'
p630
sS'file'
p631
S'ATmegaBOOT_168_atmega328_pro_8MHz.hex'
p632
sS'path'
p633
S'arduino:atmega'
p634
sS'unlock_bits'
p635
S'0x3F'
p636
ssS'upload'
p637
(dp638
S'speed'
p639
S'57600'
p640
sS'maximum_size'
p641
S'30720'
p642
sS'protocol'
p643
S'arduino'
p644
ssS'name'
p645
S'Arduino Fio'
p646
sS'build'
p647
(dp648
S'core'
p649
S'arduino'
p650
sS'mcu'
p651
S'atmega328p'
p652
sS'f_cpu'
p653
S'8000000L'
p654
sS'variant'
p655
S'eightanaloginputs'
p656
ssaa(lp657
S'bt328'
p658
a(dp659
S'bootloader'
p660
(dp661
S'extended_fuses'
p662
S'0x05'
p663
sS'high_fuses'
p664
S'0xd8'
p665
sS'low_fuses'
p666
S'0xff'
p667
sS'lock_bits'
p668
S'0x0F'
p669
sS'file'
p670
S'ATmegaBOOT_168_atmega328_bt.hex'
p671
sS'path'
p672
S'bt'
p673
sS'unlock_bits'
p674
S'0x3F'
p675
ssS'upload'
p676
(dp677
S'speed'
p678
S'19200'
p679
sS'maximum_size'
p680
S'28672'
p681
sS'protocol'
p682
S'arduino'
p683
sS'disable_flushing'
p684
S'true'
p685
ssS'name'
p686
S'Arduino BT w/ ATmega328'
p687
sS'build'
p688
(dp689
S'core'
p690
S'arduino'
p691
sS'mcu'
p692
S'atmega328p'
p693
sS'f_cpu'
p694
S'16000000L'
p695
sS'variant'
p696
S'eightanaloginputs'
p697
ssaa(lp698
S'bt'
p699
a(dp700
S'bootloader'
p701
(dp702
S'extended_fuses'
p703
S'0x00'
p704
sS'high_fuses'
p705
S'0xdd'
p706
sS'low_fuses'
p707
S'0xff'
p708
sS'lock_bits'
p709
S'0x0F'
p710
sS'file'
p711
S'ATmegaBOOT_168.hex'
p712
sS'path'
p713
S'bt'
p714
sS'unlock_bits'
p715
S'0x3F'
p716
ssS'upload'
p717
(dp718
S'speed'
p719
S'19200'
p720
sS'maximum_size'
p721
S'14336'
p722
sS'protocol'
p723
S'arduino'
p724
sS'disable_flushing'
p725
S'true'
p726
ssS'name'
p727
S'Arduino BT w/ ATmega168'
p728
sS'build'
p729
(dp730
S'core'
p731
S'arduino'
p732
sS'mcu'
p733
S'atmega168'
p734
sS'f_cpu'
p735
S'16000000L'
p736
sS'variant'
p737
S'eightanaloginputs'
p738
ssaa(lp739
S'LilyPadUSB'
p740
a(dp741
S'bootloader'
p742
(dp743
S'extended_fuses'
p744
S'0xce'
p745
sS'high_fuses'
p746
S'0xd8'
p747
sS'low_fuses'
p748
S'0xff'
p749
sS'lock_bits'
p750
S'0x2F'
p751
sS'file'
p752
S'Caterina-LilyPadUSB.hex'
p753
sS'path'
p754
S'caterina-LilyPadUSB'
p755
sS'unlock_bits'
p756
S'0x3F'
p757
ssS'upload'
p758
(dp759
S'speed'
p760
S'57600'
p761
sS'maximum_size'
p762
S'28672'
p763
sS'protocol'
p764
S'avr109'
p765
sS'disable_flushing'
p766
S'true'
p767
ssS'name'
p768
S'LilyPad Arduino USB'
p769
sS'build'
p770
(dp771
S'core'
p772
S'arduino'
p773
sS'f_cpu'
p774
S'8000000L'
p775
sS'vid'
p776
S'0x1B4F'
p777
sS'pid'
p778
S'0x9208'
p779
sS'variant'
p780
S'leonardo'
p781
sS'mcu'
p782
S'atmega32u4'
p783
ssaa(lp784
S'lilypad328'
p785
a(dp786
S'bootloader'
p787
(dp788
S'extended_fuses'
p789
S'0x05'
p790
sS'high_fuses'
p791
S'0xDA'
p792
sS'low_fuses'
p793
S'0xFF'
p794
sS'lock_bits'
p795
S'0x0F'
p796
sS'file'
p797
S'ATmegaBOOT_168_atmega328_pro_8MHz.hex'
p798
sS'path'
p799
S'atmega'
p800
sS'unlock_bits'
p801
S'0x3F'
p802
ssS'upload'
p803
(dp804
S'speed'
p805
S'57600'
p806
sS'maximum_size'
p807
S'30720'
p808
sS'protocol'
p809
S'arduino'
p810
ssS'name'
p811
S'LilyPad Arduino w/ ATmega328'
p812
sS'build'
p813
(dp814
S'core'
p815
S'arduino'
p816
sS'mcu'
p817
S'atmega328p'
p818
sS'f_cpu'
p819
S'8000000L'
p820
sS'variant'
p821
S'standard'
p822
ssaa(lp823
S'lilypad'
p824
a(dp825
S'bootloader'
p826
(dp827
S'extended_fuses'
p828
S'0x00'
p829
sS'high_fuses'
p830
S'0xdd'
p831
sS'low_fuses'
p832
S'0xe2'
p833
sS'lock_bits'
p834
S'0x0F'
p835
sS'file'
p836
S'LilyPadBOOT_168.hex'
p837
sS'path'
p838
S'lilypad'
p839
sS'unlock_bits'
p840
S'0x3F'
p841
ssS'upload'
p842
(dp843
S'speed'
p844
S'19200'
p845
sS'maximum_size'
p846
S'14336'
p847
sS'protocol'
p848
S'arduino'
p849
ssS'name'
p850
S'LilyPad Arduino w/ ATmega168'
p851
sS'build'
p852
(dp853
S'core'
p854
S'arduino'
p855
sS'mcu'
p856
S'atmega168'
p857
sS'f_cpu'
p858
S'8000000L'
p859
sS'variant'
p860
S'standard'
p861
ssaa(lp862
S'pro5v328'
p863
a(dp864
S'bootloader'
p865
(dp866
S'extended_fuses'
p867
S'0x05'
p868
sS'high_fuses'
p869
S'0xDA'
p870
sS'low_fuses'
p871
S'0xFF'
p872
sS'lock_bits'
p873
S'0x0F'
p874
sS'file'
p875
S'ATmegaBOOT_168_atmega328.hex'
p876
sS'path'
p877
S'atmega'
p878
sS'unlock_bits'
p879
S'0x3F'
p880
ssS'upload'
p881
(dp882
S'speed'
p883
S'57600'
p884
sS'maximum_size'
p885
S'30720'
p886
sS'protocol'
p887
S'arduino'
p888
ssS'name'
p889
S'Arduino Pro or Pro Mini (5V, 16 MHz) w/ ATmega328'
p890
sS'build'
p891
(dp892
S'core'
p893
S'arduino'
p894
sS'mcu'
p895
S'atmega328p'
p896
sS'f_cpu'
p897
S'16000000L'
p898
sS'variant'
p899
S'standard'
p900
ssaa(lp901
S'pro5v'
p902
a(dp903
S'bootloader'
p904
(dp905
S'extended_fuses'
p906
S'0x00'
p907
sS'high_fuses'
p908
S'0xdd'
p909
sS'low_fuses'
p910
S'0xff'
p911
sS'lock_bits'
p912
S'0x0F'
p913
sS'file'
p914
S'ATmegaBOOT_168_diecimila.hex'
p915
sS'path'
p916
S'atmega'
p917
sS'unlock_bits'
p918
S'0x3F'
p919
ssS'upload'
p920
(dp921
S'speed'
p922
S'19200'
p923
sS'maximum_size'
p924
S'14336'
p925
sS'protocol'
p926
S'arduino'
p927
ssS'name'
p928
S'Arduino Pro or Pro Mini (5V, 16 MHz) w/ ATmega168'
p929
sS'build'
p930
(dp931
S'core'
p932
S'arduino'
p933
sS'mcu'
p934
S'atmega168'
p935
sS'f_cpu'
p936
S'16000000L'
p937
sS'variant'
p938
S'standard'
p939
ssaa(lp940
S'pro328'
p941
a(dp942
S'bootloader'
p943
(dp944
S'extended_fuses'
p945
S'0x05'
p946
sS'high_fuses'
p947
S'0xDA'
p948
sS'low_fuses'
p949
S'0xFF'
p950
sS'lock_bits'
p951
S'0x0F'
p952
sS'file'
p953
S'ATmegaBOOT_168_atmega328_pro_8MHz.hex'
p954
sS'path'
p955
S'atmega'
p956
sS'unlock_bits'
p957
S'0x3F'
p958
ssS'upload'
p959
(dp960
S'speed'
p961
S'57600'
p962
sS'maximum_size'
p963
S'30720'
p964
sS'protocol'
p965
S'arduino'
p966
ssS'name'
p967
S'Arduino Pro or Pro Mini (3.3V, 8 MHz) w/ ATmega328'
p968
sS'build'
p969
(dp970
S'core'
p971
S'arduino'
p972
sS'mcu'
p973
S'atmega328p'
p974
sS'f_cpu'
p975
S'8000000L'
p976
sS'variant'
p977
S'standard'
p978
ssaa(lp979
S'pro'
p980
a(dp981
S'bootloader'
p982
(dp983
S'extended_fuses'
p984
S'0x00'
p985
sS'high_fuses'
p986
S'0xdd'
p987
sS'low_fuses'
p988
S'0xc6'
p989
sS'lock_bits'
p990
S'0x0F'
p991
sS'file'
p992
S'ATmegaBOOT_168_pro_8MHz.hex'
p993
sS'path'
p994
S'atmega'
p995
sS'unlock_bits'
p996
S'0x3F'
p997
ssS'upload'
p998
(dp999
S'speed'
p1000
S'19200'
p1001
sS'maximum_size'
p1002
S'14336'
p1003
sS'protocol'
p1004
S'arduino'
p1005
ssS'name'
p1006
S'Arduino Pro or Pro Mini (3.3V, 8 MHz) w/ ATmega168'
p1007
sS'build'
p1008
(dp1009
S'core'
p1010
S'arduino'
p1011
sS'mcu'
p1012
S'atmega168'
p1013
sS'f_cpu'
p1014
S'8000000L'
p1015
sS'variant'
p1016
S'standard'
p1017
ssaa(lp1018
S'atmega168'
p1019
a(dp1020
S'bootloader'
p1021
(dp1022
S'extended_fuses'
p1023
S'0x00'
p1024
sS'high_fuses'
p1025
S'0xdd'
p1026
sS'low_fuses'
p1027
S'0xff'
p1028
sS'lock_bits'
p1029
S'0x0F'
p1030
sS'file'
p1031
S'ATmegaBOOT_168_ng.hex'
p1032
sS'path'
p1033
S'atmega'
p1034
sS'unlock_bits'
p1035
S'0x3F'
p1036
ssS'upload'
p1037
(dp1038
S'speed'
p1039
S'19200'
p1040
sS'maximum_size'
p1041
S'14336'
p1042
sS'protocol'
p1043
S'arduino'
p1044
ssS'name'
p1045
S'Arduino NG or older w/ ATmega168'
p1046
sS'build'
p1047
(dp1048
S'core'
p1049
S'arduino'
p1050
sS'mcu'
p1051
S'atmega168'
p1052
sS'f_cpu'
p1053
S'16000000L'
p1054
sS'variant'
p1055
S'standard'
p1056
ssaa(lp1057
S'atmega8'
p1058
a(dp1059
S'bootloader'
p1060
(dp1061
S'high_fuses'
p1062
S'0xca'
p1063
sS'low_fuses'
p1064
S'0xdf'
p1065
sS'lock_bits'
p1066
S'0x0F'
p1067
sS'file'
p1068
S'ATmegaBOOT-prod-firmware-2009-11-07.hex'
p1069
sS'path'
p1070
S'atmega8'
p1071
sS'unlock_bits'
p1072
S'0x3F'
p1073
ssS'upload'
p1074
(dp1075
S'speed'
p1076
S'19200'
p1077
sS'maximum_size'
p1078
S'7168'
p1079
sS'protocol'
p1080
S'arduino'
p1081
ssS'name'
p1082
S'Arduino NG or older w/ ATmega8'
p1083
sS'build'
p1084
(dp1085
S'core'
p1086
S'arduino'
p1087
sS'mcu'
p1088
S'atmega8'
p1089
sS'f_cpu'
p1090
S'16000000L'
p1091
sS'variant'
p1092
S'standard'
p1093
ssaa(lp1094
S'robotControl'
p1095
a(dp1096
S'bootloader'
p1097
(dp1098
S'extended_fuses'
p1099
S'0xcb'
p1100
sS'high_fuses'
p1101
S'0xd8'
p1102
sS'low_fuses'
p1103
S'0xff'
p1104
sS'lock_bits'
p1105
S'0x2F'
p1106
sS'file'
p1107
S'Caterina-Robot-Control.hex'
p1108
sS'path'
p1109
S'caterina-Arduino_Robot'
p1110
sS'unlock_bits'
p1111
S'0x3F'
p1112
ssS'upload'
p1113
(dp1114
S'speed'
p1115
S'57600'
p1116
sS'maximum_size'
p1117
S'28672'
p1118
sS'protocol'
p1119
S'avr109'
p1120
sS'disable_flushing'
p1121
S'true'
p1122
ssS'name'
p1123
S'Arduino Robot Control'
p1124
sS'build'
p1125
(dp1126
S'core'
p1127
S'robot'
p1128
sS'f_cpu'
p1129
S'16000000L'
p1130
sS'vid'
p1131
S'0x2341'
p1132
sS'pid'
p1133
S'0x8038'
p1134
sS'variant'
p1135
S'robot_control'
p1136
sS'mcu'
p1137
S'atmega32u4'
p1138
ssaa(lp1139
S'robotMotor'
p1140
a(dp1141
S'bootloader'
p1142
(dp1143
S'extended_fuses'
p1144
S'0xcb'
p1145
sS'high_fuses'
p1146
S'0xd8'
p1147
sS'low_fuses'
p1148
S'0xff'
p1149
sS'lock_bits'
p1150
S'0x2F'
p1151
sS'file'
p1152
S'Caterina-Robot-Motor.hex'
p1153
sS'path'
p1154
S'caterina-Arduino_Robot'
p1155
sS'unlock_bits'
p1156
S'0x3F'
p1157
ssS'upload'
p1158
(dp1159
S'speed'
p1160
S'57600'
p1161
sS'maximum_size'
p1162
S'28672'
p1163
sS'protocol'
p1164
S'avr109'
p1165
sS'disable_flushing'
p1166
S'true'
p1167
ssS'name'
p1168
S'Arduino Robot Motor'
p1169
sS'build'
p1170
(dp1171
S'core'
p1172
S'robot'
p1173
sS'f_cpu'
p1174
S'16000000L'
p1175
sS'vid'
p1176
S'0x2341'
p1177
sS'pid'
p1178
S'0x8039'
p1179
sS'variant'
p1180
S'robot_motor'
p1181
sS'mcu'
p1182
S'atmega32u4'
p1183
ssaatp1184
Rp1185
(dp1186
S'default'
p1187
S'uno'
p1188
sbtp1189
a(S'ldflags'
p1190
g2
(g3
g4
(lp1191
g6
aS'-Wl,-Os'
p1192
aS'-Wl,--gc-sections'
p1193
atp1194
Rp1195
tp1196
a.